
There are no discarded input sections

Memory Configuration

Name             Origin             Length             Attributes
FLASH            0x08000000         0x00080000         xr
SRAM             0x20000000         0x00020000         xrw
*default*        0x00000000         0xffffffff

Linker script and memory map


.text           0x08000000      0xf70
 *(.isr_vector)
 .isr_vector    0x08000000      0x188 ./output/startup_Stm32f4.o
                0x08000000                g_pfnVectors
 *(.text)
 .text          0x08000188       0x8c ./output/main.o
                0x08000188                main
 .text          0x08000214      0x1d0 ./output/it.o
                0x08000214                EXTI0_IRQHandler
                0x08000230                EXTI1_IRQHandler
                0x0800024c                EXTI2_IRQHandler
                0x08000268                EXTI3_IRQHandler
                0x08000284                EXTI4_IRQHandler
                0x080002a0                EXTI9_5_IRQHandler
                0x08000328                EXTI15_10_IRQHandler
                0x080003c8                SysTick_Handler
 .text          0x080003e4      0x26c ./output/clock.o
                0x080003e4                ClockInit
 .text          0x08000650      0x788 ./output/gpio.o
                0x08000770                GpioInitOutput
                0x080007d2                GpioInitInput
                0x0800080c                GpioInitITinput
                0x08000d38                GpioWritePin
                0x08000dae                GpioReadPin
 .text          0x08000dd8        0x0 ./output/uart.o
 .text          0x08000dd8       0x44 ./output/delay.o
                0x08000dd8                delay_ms
 .text          0x08000e1c       0x8c ./output/startup_Stm32f4.o
                0x08000e1c                Reset_Handler
                0x08000ea0                HASH_RNG_IRQHandler
                0x08000ea0                TIM8_CC_IRQHandler
                0x08000ea0                DebugMon_Handler
                0x08000ea0                TIM1_CC_IRQHandler
                0x08000ea0                DMA2_Stream5_IRQHandler
                0x08000ea0                HardFault_Handler
                0x08000ea0                DMA1_Stream5_IRQHandler
                0x08000ea0                PVD_IRQHandler
                0x08000ea0                SDIO_IRQHandler
                0x08000ea0                TAMP_STAMP_IRQHandler
                0x08000ea0                PendSV_Handler
                0x08000ea0                NMI_Handler
                0x08000ea0                CAN2_RX1_IRQHandler
                0x08000ea0                TIM8_TRG_COM_TIM14_IRQHandler
                0x08000ea0                TIM1_UP_TIM10_IRQHandler
                0x08000ea0                TIM8_UP_TIM13_IRQHandler
                0x08000ea0                I2C3_ER_IRQHandler
                0x08000ea0                I2C2_EV_IRQHandler
                0x08000ea0                DMA1_Stream2_IRQHandler
                0x08000ea0                CAN1_RX0_IRQHandler
                0x08000ea0                FPU_IRQHandler
                0x08000ea0                OTG_HS_WKUP_IRQHandler
                0x08000ea0                Defualt_Handle
                0x08000ea0                UsageFault_Handler
                0x08000ea0                CAN2_SCE_IRQHandler
                0x08000ea0                DMA2_Stream2_IRQHandler
                0x08000ea0                SPI1_IRQHandler
                0x08000ea0                TIM6_DAC_IRQHandler
                0x08000ea0                TIM1_BRK_TIM9_IRQHandler
                0x08000ea0                DCMI_IRQHandler
                0x08000ea0                CAN2_RX0_IRQHandler
                0x08000ea0                DMA2_Stream3_IRQHandler
                0x08000ea0                USART6_IRQHandler
                0x08000ea0                USART3_IRQHandler
                0x08000ea0                CRYP_IRQHandler
                0x08000ea0                RTC_Alarm_IRQHandler
                0x08000ea0                CAN1_RX1_IRQHandler
                0x08000ea0                UART5_IRQHandler
                0x08000ea0                DMA2_Stream0_IRQHandler
                0x08000ea0                TIM4_IRQHandler
                0x08000ea0                I2C1_EV_IRQHandler
                0x08000ea0                DMA1_Stream6_IRQHandler
                0x08000ea0                DMA1_Stream1_IRQHandler
                0x08000ea0                UART4_IRQHandler
                0x08000ea0                TIM3_IRQHandler
                0x08000ea0                RCC_IRQHandler
                0x08000ea0                TIM8_BRK_TIM12_IRQHandler
                0x08000ea0                ADC_IRQHandler
                0x08000ea0                DMA1_Stream7_IRQHandler
                0x08000ea0                TIM7_IRQHandler
                0x08000ea0                CAN2_TX_IRQHandler
                0x08000ea0                TIM5_IRQHandler
                0x08000ea0                DMA2_Stream7_IRQHandler
                0x08000ea0                I2C3_EV_IRQHandler
                0x08000ea0                RTC_WKUP_IRQHandler
                0x08000ea0                ETH_WKUP_IRQHandler
                0x08000ea0                SPI2_IRQHandler
                0x08000ea0                OTG_HS_EP1_IN_IRQHandler
                0x08000ea0                MemManage_Handler
                0x08000ea0                DMA1_Stream0_IRQHandler
                0x08000ea0                CAN1_TX_IRQHandler
                0x08000ea0                SVC_Handler
                0x08000ea0                FSMC_IRQHandler
                0x08000ea0                ETH_IRQHandler
                0x08000ea0                OTG_HS_EP1_OUT_IRQHandler
                0x08000ea0                WWDG_IRQHandler
                0x08000ea0                TIM2_IRQHandler
                0x08000ea0                OTG_FS_WKUP_IRQHandler
                0x08000ea0                TIM1_TRG_COM_TIM11_IRQHandler
                0x08000ea0                OTG_HS_IRQHandler
                0x08000ea0                USART2_IRQHandler
                0x08000ea0                I2C2_ER_IRQHandler
                0x08000ea0                DMA2_Stream1_IRQHandler
                0x08000ea0                CAN1_SCE_IRQHandler
                0x08000ea0                FLASH_IRQHandler
                0x08000ea0                DMA2_Stream4_IRQHandler
                0x08000ea0                BusFault_Handler
                0x08000ea0                USART1_IRQHandler
                0x08000ea0                OTG_FS_IRQHandler
                0x08000ea0                SPI3_IRQHandler
                0x08000ea0                DMA1_Stream4_IRQHandler
                0x08000ea0                I2C1_ER_IRQHandler
                0x08000ea0                DMA2_Stream6_IRQHandler
                0x08000ea0                DMA1_Stream3_IRQHandler
 .text          0x08000ea8       0xc8 ./output/system_handle.o
                0x08000ea8                Systick_init
                0x08000f10                Get_systick
                0x08000f24                Sys_init
                0x08000f40                Systick_delay_ms
 *(.rodata)
                0x08000f70                        . = ALIGN (0x4)
                0x08000f70                        _etext = .
                [0x00000000]                      _la_data = LOADADDR (.data)

.glue_7         0x08000f70        0x0
 .glue_7        0x08000f70        0x0 linker stubs

.glue_7t        0x08000f70        0x0
 .glue_7t       0x08000f70        0x0 linker stubs

.vfp11_veneer   0x08000f70        0x0
 .vfp11_veneer  0x08000f70        0x0 linker stubs

.v4_bx          0x08000f70        0x0
 .v4_bx         0x08000f70        0x0 linker stubs

.iplt           0x08000f70        0x0
 .iplt          0x08000f70        0x0 ./output/main.o

.rel.dyn        0x08000f70        0x0
 .rel.iplt      0x08000f70        0x0 ./output/main.o

.data           0x20000000        0x0 load address 0x00000000
                0x20000000                        _sdata = .
 *(.data)
 .data          0x20000000        0x0 ./output/main.o
 .data          0x20000000        0x0 ./output/it.o
 .data          0x20000000        0x0 ./output/clock.o
 .data          0x20000000        0x0 ./output/gpio.o
 .data          0x20000000        0x0 ./output/uart.o
 .data          0x20000000        0x0 ./output/delay.o
 .data          0x20000000        0x0 ./output/startup_Stm32f4.o
 .data          0x20000000        0x0 ./output/system_handle.o
                0x20000000                        . = ALIGN (0x4)
                0x20000000                        _edata = .

.igot.plt       0x20000000        0x0 load address 0x00000000
 .igot.plt      0x20000000        0x0 ./output/main.o

.bss            0x20000000        0x8 load address 0x00000000
                0x20000000                        _sbss = .
 *(.bss)
 .bss           0x20000000        0x0 ./output/main.o
 .bss           0x20000000        0x0 ./output/it.o
 .bss           0x20000000        0x0 ./output/clock.o
 .bss           0x20000000        0x0 ./output/gpio.o
 .bss           0x20000000        0x0 ./output/uart.o
 .bss           0x20000000        0x0 ./output/delay.o
 .bss           0x20000000        0x0 ./output/startup_Stm32f4.o
 .bss           0x20000000        0x8 ./output/system_handle.o
                0x20000000                SystemClock
                0x20000004                SysTick
 *(COMMON)
                0x20000008                        . = ALIGN (0x4)
                0x20000008                        _ebss = .
LOAD ./output/main.o
LOAD ./output/it.o
LOAD ./output/clock.o
LOAD ./output/gpio.o
LOAD ./output/uart.o
LOAD ./output/delay.o
LOAD ./output/startup_Stm32f4.o
LOAD ./output/system_handle.o
OUTPUT(./output/stm32_f4.elf elf32-littlearm)
LOAD linker stubs

.debug_info     0x00000000     0x111c
 .debug_info    0x00000000      0x216 ./output/main.o
 .debug_info    0x00000216      0x16d ./output/it.o
 .debug_info    0x00000383      0x3af ./output/clock.o
 .debug_info    0x00000732      0x61c ./output/gpio.o
 .debug_info    0x00000d4e       0xcc ./output/delay.o
 .debug_info    0x00000e1a      0x190 ./output/startup_Stm32f4.o
 .debug_info    0x00000faa      0x172 ./output/system_handle.o

.debug_abbrev   0x00000000      0x6bf
 .debug_abbrev  0x00000000       0xdb ./output/main.o
 .debug_abbrev  0x000000db       0xa3 ./output/it.o
 .debug_abbrev  0x0000017e      0x113 ./output/clock.o
 .debug_abbrev  0x00000291      0x16f ./output/gpio.o
 .debug_abbrev  0x00000400       0x89 ./output/delay.o
 .debug_abbrev  0x00000489      0x10e ./output/startup_Stm32f4.o
 .debug_abbrev  0x00000597      0x128 ./output/system_handle.o

.debug_aranges  0x00000000       0xe0
 .debug_aranges
                0x00000000       0x20 ./output/main.o
 .debug_aranges
                0x00000020       0x20 ./output/it.o
 .debug_aranges
                0x00000040       0x20 ./output/clock.o
 .debug_aranges
                0x00000060       0x20 ./output/gpio.o
 .debug_aranges
                0x00000080       0x20 ./output/delay.o
 .debug_aranges
                0x000000a0       0x20 ./output/startup_Stm32f4.o
 .debug_aranges
                0x000000c0       0x20 ./output/system_handle.o

.debug_line     0x00000000     0x101a
 .debug_line    0x00000000      0x1b9 ./output/main.o
 .debug_line    0x000001b9      0x1cb ./output/it.o
 .debug_line    0x00000384      0x2e5 ./output/clock.o
 .debug_line    0x00000669      0x529 ./output/gpio.o
 .debug_line    0x00000b92        0x0 ./output/uart.o
 .debug_line    0x00000b92      0x166 ./output/delay.o
 .debug_line    0x00000cf8      0x188 ./output/startup_Stm32f4.o
 .debug_line    0x00000e80      0x19a ./output/system_handle.o

.debug_str      0x00000000      0x6af
 .debug_str     0x00000000      0x6af ./output/main.o
                                0x1ff (size before relaxing)
 .debug_str     0x000006af      0x1fd ./output/it.o
 .debug_str     0x000006af      0x372 ./output/clock.o
 .debug_str     0x000006af      0x3bc ./output/gpio.o
 .debug_str     0x000006af       0xd0 ./output/uart.o
 .debug_str     0x000006af      0x194 ./output/delay.o
 .debug_str     0x000006af      0x1d5 ./output/startup_Stm32f4.o
 .debug_str     0x000006af      0x1cb ./output/system_handle.o

.comment        0x00000000       0x45
 .comment       0x00000000       0x45 ./output/main.o
                                 0x46 (size before relaxing)
 .comment       0x00000045       0x46 ./output/it.o
 .comment       0x00000045       0x46 ./output/clock.o
 .comment       0x00000045       0x46 ./output/gpio.o
 .comment       0x00000045       0x46 ./output/uart.o
 .comment       0x00000045       0x46 ./output/delay.o
 .comment       0x00000045       0x46 ./output/startup_Stm32f4.o
 .comment       0x00000045       0x46 ./output/system_handle.o

.ARM.attributes
                0x00000000       0x2e
 .ARM.attributes
                0x00000000       0x2e ./output/main.o
 .ARM.attributes
                0x0000002e       0x2e ./output/it.o
 .ARM.attributes
                0x0000005c       0x2e ./output/clock.o
 .ARM.attributes
                0x0000008a       0x2e ./output/gpio.o
 .ARM.attributes
                0x000000b8       0x2e ./output/uart.o
 .ARM.attributes
                0x000000e6       0x2e ./output/delay.o
 .ARM.attributes
                0x00000114       0x2e ./output/startup_Stm32f4.o
 .ARM.attributes
                0x00000142       0x2e ./output/system_handle.o

.debug_frame    0x00000000      0x384
 .debug_frame   0x00000000       0x30 ./output/main.o
 .debug_frame   0x00000030      0x110 ./output/it.o
 .debug_frame   0x00000140       0x38 ./output/clock.o
 .debug_frame   0x00000178       0xf8 ./output/gpio.o
 .debug_frame   0x00000270       0x38 ./output/delay.o
 .debug_frame   0x000002a8       0x4c ./output/startup_Stm32f4.o
 .debug_frame   0x000002f4       0x90 ./output/system_handle.o
